target datalayout = "e-m:e-p270:32:32-p271:32:32-p272:64:64-i64:64-i128:128-f80:128-n8:16:32:64-S128"
target triple = "x86_64-pc-linux-gnu"

; Function Attrs: inlinehint nounwind uwtable
define internal i32 @fls_lu(i64 noundef %0) #2 {
  %2 = alloca i64, align 8
  store i64 %0, ptr %2, align 8, !tbaa !8
  %3 = load i64, ptr %2, align 8, !tbaa !8
  %4 = icmp ne i64 %3, 0
  call void @llvm.assume(i1 %4)
  %5 = load i64, ptr %2, align 8, !tbaa !8
  %6 = call i64 @llvm.ctlz.i64(i64 %5, i1 true)
  %7 = trunc i64 %6 to i32
  %8 = sext i32 %7 to i64
  %9 = xor i64 63, %8
  %10 = trunc i64 %9 to i32
  ret i32 %10
}

; Function Attrs: inlinehint nounwind uwtable
define internal i32 @fls_u64(i64 noundef %0) #2 {
  %2 = alloca i64, align 8
  store i64 %0, ptr %2, align 8, !tbaa !8
  %3 = load i64, ptr %2, align 8, !tbaa !8
  %4 = call i32 @fls_lu(i64 noundef %3)
  ret i32 %4
}

; Function Attrs: inlinehint nounwind uwtable
define internal i64 @pow2_ceil_u64(i64 noundef %0) #2 {
  %2 = alloca i64, align 8
  %3 = alloca i64, align 8
  %4 = alloca i64, align 8
  store i64 %0, ptr %3, align 8, !tbaa !8
  %5 = load i64, ptr %3, align 8, !tbaa !8
  %6 = icmp ule i64 %5, 1
  %7 = xor i1 %6, true
  %8 = xor i1 %7, true
  %9 = zext i1 %8 to i32
  %10 = sext i32 %9 to i64
  %11 = call i64 @llvm.expect.i64(i64 %10, i64 0)
  %12 = icmp ne i64 %11, 0
  br i1 %12, label %13, label %15

13:                                               ; preds = %1
  %14 = load i64, ptr %3, align 8, !tbaa !8
  store i64 %14, ptr %2, align 8
  br label %26

15:                                               ; preds = %1
  call void @llvm.lifetime.start.p0(i64 8, ptr %4) #8
  %16 = load i64, ptr %3, align 8, !tbaa !8
  %17 = sub i64 %16, 1
  %18 = call i32 @fls_u64(i64 noundef %17)
  %19 = zext i32 %18 to i64
  store i64 %19, ptr %4, align 8, !tbaa !8
  br label %20

20:                                               ; preds = %15
  br label %21

21:                                               ; preds = %20
  br label %22

22:                                               ; preds = %21
  %23 = load i64, ptr %4, align 8, !tbaa !8
  %24 = add i64 %23, 1
  %25 = shl i64 1, %24
  store i64 %25, ptr %2, align 8
  call void @llvm.lifetime.end.p0(i64 8, ptr %4) #8
  br label %26

26:                                               ; preds = %22, %13
  %27 = load i64, ptr %2, align 8
  ret i64 %27
}

; Function Attrs: inlinehint nounwind uwtable
define internal i32 @lg_floor(i64 noundef %0) #2 {
  %2 = alloca i64, align 8
  store i64 %0, ptr %2, align 8, !tbaa !8
  %3 = load i64, ptr %2, align 8, !tbaa !8
  %4 = icmp ne i64 %3, 0
  call void @llvm.assume(i1 %4)
  %5 = load i64, ptr %2, align 8, !tbaa !8
  %6 = call i32 @fls_u64(i64 noundef %5)
  ret i32 %6
}

; Function Attrs: inlinehint nounwind uwtable
define internal i64 @pow2_ceil_zu(i64 noundef %0) #2 {
  %2 = alloca i64, align 8
  store i64 %0, ptr %2, align 8, !tbaa !8
  %3 = load i64, ptr %2, align 8, !tbaa !8
  %4 = call i64 @pow2_ceil_u64(i64 noundef %3)
  ret i64 %4
}

; Function Attrs: inlinehint nounwind uwtable
define internal i32 @sz_size2index_compute(i64 noundef %0) #2 {
  %2 = alloca i32, align 4
  %3 = alloca i64, align 8
  %4 = alloca i32, align 4
  %5 = alloca i32, align 4
  %6 = alloca i32, align 4
  %7 = alloca i32, align 4
  %8 = alloca i32, align 4
  %9 = alloca i32, align 4
  %10 = alloca i64, align 8
  %11 = alloca i32, align 4
  %12 = alloca i32, align 4
  store i64 %0, ptr %3, align 8, !tbaa !8
  %13 = load i64, ptr %3, align 8, !tbaa !8
  %14 = icmp ugt i64 %13, 8070450532247928832
  %15 = xor i1 %14, true
  %16 = xor i1 %15, true
  %17 = zext i1 %16 to i32
  %18 = sext i32 %17 to i64
  %19 = call i64 @llvm.expect.i64(i64 %18, i64 0)
  %20 = icmp ne i64 %19, 0
  br i1 %20, label %21, label %22

21:                                               ; preds = %1
  store i32 232, ptr %2, align 4
  br label %84

22:                                               ; preds = %1
  %23 = load i64, ptr %3, align 8, !tbaa !8
  %24 = icmp eq i64 %23, 0
  br i1 %24, label %25, label %26

25:                                               ; preds = %22
  store i32 0, ptr %2, align 4
  br label %84

26:                                               ; preds = %22
  %27 = load i64, ptr %3, align 8, !tbaa !8
  %28 = icmp ule i64 %27, 8
  br i1 %28, label %29, label %43

29:                                               ; preds = %26
  call void @llvm.lifetime.start.p0(i64 4, ptr %4) #8
  store i32 3, ptr %4, align 4, !tbaa !10
  call void @llvm.lifetime.start.p0(i64 4, ptr %5) #8
  %30 = load i64, ptr %3, align 8, !tbaa !8
  %31 = call i64 @pow2_ceil_zu(i64 noundef %30)
  %32 = call i32 @lg_floor(i64 noundef %31)
  store i32 %32, ptr %5, align 4, !tbaa !10
  %33 = load i32, ptr %5, align 4, !tbaa !10
  %34 = load i32, ptr %4, align 4, !tbaa !10
  %35 = icmp ult i32 %33, %34
  br i1 %35, label %36, label %37

36:                                               ; preds = %29
  br label %41

37:                                               ; preds = %29
  %38 = load i32, ptr %5, align 4, !tbaa !10
  %39 = load i32, ptr %4, align 4, !tbaa !10
  %40 = sub i32 %38, %39
  br label %41

41:                                               ; preds = %37, %36
  %42 = phi i32 [ 0, %36 ], [ %40, %37 ]
  store i32 %42, ptr %2, align 4
  call void @llvm.lifetime.end.p0(i64 4, ptr %5) #8
  call void @llvm.lifetime.end.p0(i64 4, ptr %4) #8
  br label %84

43:                                               ; preds = %26
  call void @llvm.lifetime.start.p0(i64 4, ptr %6) #8
  %44 = load i64, ptr %3, align 8, !tbaa !8
  %45 = shl i64 %44, 1
  %46 = sub i64 %45, 1
  %47 = call i32 @lg_floor(i64 noundef %46)
  store i32 %47, ptr %6, align 4, !tbaa !10
  call void @llvm.lifetime.start.p0(i64 4, ptr %7) #8
  %48 = load i32, ptr %6, align 4, !tbaa !10
  %49 = icmp ult i32 %48, 6
  br i1 %49, label %50, label %51

50:                                               ; preds = %43
  br label %54

51:                                               ; preds = %43
  %52 = load i32, ptr %6, align 4, !tbaa !10
  %53 = sub i32 %52, 6
  br label %54

54:                                               ; preds = %51, %50
  %55 = phi i32 [ 0, %50 ], [ %53, %51 ]
  store i32 %55, ptr %7, align 4, !tbaa !10
  call void @llvm.lifetime.start.p0(i64 4, ptr %8) #8
  %56 = load i32, ptr %7, align 4, !tbaa !10
  %57 = shl i32 %56, 2
  store i32 %57, ptr %8, align 4, !tbaa !10
  call void @llvm.lifetime.start.p0(i64 4, ptr %9) #8
  %58 = load i32, ptr %6, align 4, !tbaa !10
  %59 = icmp ult i32 %58, 7
  br i1 %59, label %60, label %61

60:                                               ; preds = %54
  br label %65

61:                                               ; preds = %54
  %62 = load i32, ptr %6, align 4, !tbaa !10
  %63 = sub i32 %62, 2
  %64 = sub i32 %63, 1
  br label %65

65:                                               ; preds = %61, %60
  %66 = phi i32 [ 4, %60 ], [ %64, %61 ]
  store i32 %66, ptr %9, align 4, !tbaa !10
  call void @llvm.lifetime.start.p0(i64 8, ptr %10) #8
  %67 = load i32, ptr %9, align 4, !tbaa !10
  %68 = zext i32 %67 to i64
  %69 = shl i64 -1, %68
  store i64 %69, ptr %10, align 8, !tbaa !8
  call void @llvm.lifetime.start.p0(i64 4, ptr %11) #8
  %70 = load i64, ptr %3, align 8, !tbaa !8
  %71 = sub i64 %70, 1
  %72 = load i64, ptr %10, align 8, !tbaa !8
  %73 = and i64 %71, %72
  %74 = load i32, ptr %9, align 4, !tbaa !10
  %75 = zext i32 %74 to i64
  %76 = lshr i64 %73, %75
  %77 = and i64 %76, 3
  %78 = trunc i64 %77 to i32
  store i32 %78, ptr %11, align 4, !tbaa !10
  call void @llvm.lifetime.start.p0(i64 4, ptr %12) #8
  %79 = load i32, ptr %8, align 4, !tbaa !10
  %80 = add i32 1, %79
  %81 = load i32, ptr %11, align 4, !tbaa !10
  %82 = add i32 %80, %81
  store i32 %82, ptr %12, align 4, !tbaa !10
  %83 = load i32, ptr %12, align 4, !tbaa !10
  store i32 %83, ptr %2, align 4
  call void @llvm.lifetime.end.p0(i64 4, ptr %12) #8
  call void @llvm.lifetime.end.p0(i64 4, ptr %11) #8
  call void @llvm.lifetime.end.p0(i64 8, ptr %10) #8
  call void @llvm.lifetime.end.p0(i64 4, ptr %9) #8
  call void @llvm.lifetime.end.p0(i64 4, ptr %8) #8
  call void @llvm.lifetime.end.p0(i64 4, ptr %7) #8
  call void @llvm.lifetime.end.p0(i64 4, ptr %6) #8
  br label %84

84:                                               ; preds = %65, %41, %25, %21
  %85 = load i32, ptr %2, align 4
  ret i32 %85
}

; Function Attrs: nounwind uwtable
define zeroext i1 @duckdb_je_bin_update_shard_size(ptr noundef %0, i64 noundef %1, i64 noundef %2, i64 noundef %3) #0 {
  %5 = alloca i1, align 1
  %6 = alloca ptr, align 8
  %7 = alloca i64, align 8
  %8 = alloca i64, align 8
  %9 = alloca i64, align 8
  %10 = alloca i32, align 4
  %11 = alloca i32, align 4
  %12 = alloca i32, align 4
  store ptr %0, ptr %6, align 8, !tbaa !3
  store i64 %1, ptr %7, align 8, !tbaa !8
  store i64 %2, ptr %8, align 8, !tbaa !8
  store i64 %3, ptr %9, align 8, !tbaa !8
  %13 = load i64, ptr %9, align 8, !tbaa !8
  %14 = icmp ugt i64 %13, 64
  br i1 %14, label %18, label %15

15:                                               ; preds = %4
  %16 = load i64, ptr %9, align 8, !tbaa !8
  %17 = icmp eq i64 %16, 0
  br i1 %17, label %18, label %19

18:                                               ; preds = %15, %4
  store i1 true, ptr %5, align 1
  br label %49

19:                                               ; preds = %15
  %20 = load i64, ptr %7, align 8, !tbaa !8
  %21 = icmp ugt i64 %20, 14336
  br i1 %21, label %22, label %23

22:                                               ; preds = %19
  store i1 false, ptr %5, align 1
  br label %49

23:                                               ; preds = %19
  %24 = load i64, ptr %8, align 8, !tbaa !8
  %25 = icmp ugt i64 %24, 14336
  br i1 %25, label %26, label %27

26:                                               ; preds = %23
  store i64 14336, ptr %8, align 8, !tbaa !8
  br label %27

27:                                               ; preds = %26, %23
  call void @llvm.lifetime.start.p0(i64 4, ptr %10) #8
  %28 = load i64, ptr %7, align 8, !tbaa !8
  %29 = call i32 @sz_size2index_compute(i64 noundef %28)
  store i32 %29, ptr %10, align 4, !tbaa !10
  call void @llvm.lifetime.start.p0(i64 4, ptr %11) #8
  %30 = load i64, ptr %8, align 8, !tbaa !8
  %31 = call i32 @sz_size2index_compute(i64 noundef %30)
  store i32 %31, ptr %11, align 4, !tbaa !10
  call void @llvm.lifetime.start.p0(i64 4, ptr %12) #8
  %32 = load i32, ptr %10, align 4, !tbaa !10
  store i32 %32, ptr %12, align 4, !tbaa !10
  br label %33

33:                                               ; preds = %45, %27
  %34 = load i32, ptr %12, align 4, !tbaa !10
  %35 = load i32, ptr %11, align 4, !tbaa !10
  %36 = icmp ule i32 %34, %35
  br i1 %36, label %38, label %37

37:                                               ; preds = %33
  call void @llvm.lifetime.end.p0(i64 4, ptr %12) #8
  br label %48

38:                                               ; preds = %33
  %39 = load i64, ptr %9, align 8, !tbaa !8
  %40 = trunc i64 %39 to i32
  %41 = load ptr, ptr %6, align 8, !tbaa !3
  %42 = load i32, ptr %12, align 4, !tbaa !10
  %43 = zext i32 %42 to i64
  %44 = getelementptr inbounds nuw i32, ptr %41, i64 %43
  store i32 %40, ptr %44, align 4, !tbaa !10
  br label %45

45:                                               ; preds = %38
  %46 = load i32, ptr %12, align 4, !tbaa !10
  %47 = add i32 %46, 1
  store i32 %47, ptr %12, align 4, !tbaa !10
  br label %33

48:                                               ; preds = %37
  store i1 false, ptr %5, align 1
  call void @llvm.lifetime.end.p0(i64 4, ptr %11) #8
  call void @llvm.lifetime.end.p0(i64 4, ptr %10) #8
  br label %49

49:                                               ; preds = %48, %22, %18
  %50 = load i1, ptr %5, align 1
  ret i1 %50
}