; Function Attrs: nofree norecurse nosync nounwind memory(argmem: write) uwtable
define noundef zeroext i1 @duckdb_je_bin_update_shard_size(ptr noundef writeonly captures(none) %0, i64 noundef %1, i64 noundef %2, i64 noundef %3) local_unnamed_addr #0 {
  %5 = add i64 %3, -65
  %or.cond = icmp ult i64 %5, -64
  %6 = icmp ugt i64 %1, 14336
  %or.cond17 = or i1 %6, %or.cond
  br i1 %or.cond17, label %.loopexit, label %7

7:                                                ; preds = %4
  %spec.store.select = tail call i64 @llvm.umin.i64(i64 %2, i64 14336)
  %8 = icmp samesign ult i64 %1, 9
  br i1 %8, label %sz_size2index_compute.exit, label %9

9:                                                ; preds = %7
  %10 = shl nuw nsw i64 %1, 1
  %11 = add nsw i64 %10, -1
  %12 = tail call range(i64 0, 65) i64 @llvm.ctlz.i64(i64 range(i64 1, 0) %11, i1 true)
  %13 = trunc nuw nsw i64 %12 to i32
  %14 = xor i32 %13, 63
  %15 = tail call i32 @llvm.usub.sat.i32(i32 %14, i32 6)
  %16 = shl nuw nsw i32 %15, 2
  %17 = tail call i32 @llvm.umax.i32(i32 %14, i32 7)
  %18 = add nsw i32 %17, -3
  %19 = zext nneg i32 %18 to i64
  %20 = shl nsw i64 -1, %19
  %21 = add nsw i64 %1, -1
  %22 = and i64 %20, %21
  %23 = lshr i64 %22, %19
  %24 = trunc i64 %23 to i32
  %25 = and i32 %24, 3
  %26 = or disjoint i32 %16, 1
  %27 = add nuw nsw i32 %26, %25
  br label %sz_size2index_compute.exit

sz_size2index_compute.exit:                       ; preds = %7, %9
  %.0.i = phi i32 [ %27, %9 ], [ 0, %7 ]
  %28 = icmp ult i64 %2, 9
  br i1 %28, label %sz_size2index_compute.exit19, label %29

29:                                               ; preds = %sz_size2index_compute.exit
  %30 = shl nuw nsw i64 %spec.store.select, 1
  %31 = add nsw i64 %30, -1
  %32 = tail call range(i64 0, 65) i64 @llvm.ctlz.i64(i64 range(i64 1, 0) %31, i1 true)
  %33 = trunc nuw nsw i64 %32 to i32
  %34 = xor i32 %33, 63
  %35 = tail call i32 @llvm.usub.sat.i32(i32 %34, i32 6)
  %36 = shl nuw nsw i32 %35, 2
  %37 = tail call i32 @llvm.umax.i32(i32 %34, i32 7)
  %38 = add nsw i32 %37, -3
  %39 = zext nneg i32 %38 to i64
  %40 = shl nsw i64 -1, %39
  %41 = add nsw i64 %spec.store.select, -1
  %42 = and i64 %40, %41
  %43 = lshr i64 %42, %39
  %44 = trunc i64 %43 to i32
  %45 = and i32 %44, 3
  %46 = or disjoint i32 %36, 1
  %47 = add nuw nsw i32 %46, %45
  br label %sz_size2index_compute.exit19

sz_size2index_compute.exit19:                     ; preds = %sz_size2index_compute.exit, %29
  %.0.i18 = phi i32 [ %47, %29 ], [ 0, %sz_size2index_compute.exit ]
  %.not20 = icmp samesign ugt i32 %.0.i, %.0.i18
  br i1 %.not20, label %.loopexit, label %.lr.ph

.lr.ph:                                           ; preds = %sz_size2index_compute.exit19
  %48 = trunc nuw nsw i64 %3 to i32
  br label %49

49:                                               ; preds = %.lr.ph, %49
  %.021 = phi i32 [ %.0.i, %.lr.ph ], [ %52, %49 ]
  %50 = zext i32 %.021 to i64
  %51 = getelementptr inbounds nuw i32, ptr %0, i64 %50
  store i32 %48, ptr %51, align 4, !tbaa !3
  %52 = add i32 %.021, 1
  %.not = icmp ugt i32 %52, %.0.i18
  br i1 %.not, label %.loopexit, label %49

.loopexit:                                        ; preds = %49, %sz_size2index_compute.exit19, %4
  ret i1 %or.cond
}